target datalayout = "e-m:e-p270:32:32-p271:32:32-p272:64:64-i64:64-i128:128-f80:128-n8:16:32:64-S128"
target triple = "x86_64-pc-linux-gnu"

%class.elapsedTimer = type <{ i64, i64, i8, [7 x i8] }>
%class.HeapDumper = type { ptr, i8, i8, [6 x i8], %class.elapsedTimer }

; Function Attrs: mustprogress nounwind uwtable
define hidden void @_ZN10HeapDumper9set_errorEPKc(ptr noundef nonnull align 8 dereferenceable(40) %0, ptr noundef %1) #1 align 2 {
  %3 = alloca ptr, align 8
  %4 = alloca ptr, align 8
  store ptr %0, ptr %3, align 8
  store ptr %1, ptr %4, align 8
  %5 = load ptr, ptr %3, align 8
  %6 = getelementptr inbounds %class.HeapDumper, ptr %5, i32 0, i32 0
  %7 = load ptr, ptr %6, align 8
  %8 = icmp ne ptr %7, null
  br i1 %8, label %9, label %12

9:                                                ; preds = %2
  %10 = getelementptr inbounds %class.HeapDumper, ptr %5, i32 0, i32 0
  %11 = load ptr, ptr %10, align 8
  call void @_ZN2os4freeEPv(ptr noundef %11)
  br label %12

12:                                               ; preds = %9, %2
  %13 = load ptr, ptr %4, align 8
  %14 = icmp eq ptr %13, null
  br i1 %14, label %15, label %17

15:                                               ; preds = %12
  %16 = getelementptr inbounds %class.HeapDumper, ptr %5, i32 0, i32 0
  store ptr null, ptr %16, align 8
  br label %21

17:                                               ; preds = %12
  %18 = load ptr, ptr %4, align 8
  %19 = call noundef ptr @_ZN2os6strdupEPKc8MEMFLAGS(ptr noundef %18, i8 noundef zeroext 9)
  %20 = getelementptr inbounds %class.HeapDumper, ptr %5, i32 0, i32 0
  store ptr %19, ptr %20, align 8
  br label %21

21:                                               ; preds = %17, %15
  ret void
}

; Function Attrs: mustprogress nounwind uwtable
define linkonce_odr hidden noundef zeroext i1 @_ZNK12elapsedTimer9is_activeEv(ptr noundef nonnull align 8 dereferenceable(17) %0) #1 comdat align 2 {
  %2 = alloca ptr, align 8
  store ptr %0, ptr %2, align 8
  %3 = load ptr, ptr %2, align 8
  %4 = getelementptr inbounds %class.elapsedTimer, ptr %3, i32 0, i32 2
  %5 = load i8, ptr %4, align 8
  %6 = trunc i8 %5 to i1
  ret i1 %6
}

; Function Attrs: mustprogress nounwind uwtable
define linkonce_odr hidden noundef ptr @_ZN10HeapDumper5timerEv(ptr noundef nonnull align 8 dereferenceable(40) %0) #1 comdat align 2 {
  %2 = alloca ptr, align 8
  store ptr %0, ptr %2, align 8
  %3 = load ptr, ptr %2, align 8
  %4 = getelementptr inbounds %class.HeapDumper, ptr %3, i32 0, i32 4
  ret ptr %4
}

; Function Attrs: mustprogress nounwind uwtable
define hidden void @_ZN10HeapDumperD2Ev(ptr noundef nonnull align 8 dereferenceable(40) %0) unnamed_addr #1 align 2 {
  %2 = alloca ptr, align 8
  store ptr %0, ptr %2, align 8
  %3 = load ptr, ptr %2, align 8
  %4 = call noundef ptr @_ZN10HeapDumper5timerEv(ptr noundef nonnull align 8 dereferenceable(40) %3)
  %5 = call noundef zeroext i1 @_ZNK12elapsedTimer9is_activeEv(ptr noundef nonnull align 8 dereferenceable(17) %4)
  br i1 %5, label %6, label %8

6:                                                ; preds = %1
  %7 = call noundef ptr @_ZN10HeapDumper5timerEv(ptr noundef nonnull align 8 dereferenceable(40) %3)
  call void @_ZN12elapsedTimer4stopEv(ptr noundef nonnull align 8 dereferenceable(17) %7)
  br label %8

8:                                                ; preds = %6, %1
  call void @_ZN10HeapDumper9set_errorEPKc(ptr noundef nonnull align 8 dereferenceable(40) %3, ptr noundef null)
  ret void
}