; Function Attrs: mustprogress nounwind uwtable
define hidden void @_ZN10HeapDumperD2Ev(ptr noundef nonnull align 8 dereferenceable(40) %0) unnamed_addr #3 align 2 {
  %2 = getelementptr inbounds i8, ptr %0, i64 32
  %3 = load i8, ptr %2, align 8
  %4 = trunc i8 %3 to i1
  br i1 %4, label %5, label %7

5:                                                ; preds = %1
  %6 = getelementptr inbounds i8, ptr %0, i64 16
  tail call void @_ZN12elapsedTimer4stopEv(ptr noundef nonnull align 8 dereferenceable(17) %6) #19
  br label %7

7:                                                ; preds = %5, %1
  %8 = load ptr, ptr %0, align 8
  %.not.i = icmp eq ptr %8, null
  br i1 %.not.i, label %_ZN10HeapDumper9set_errorEPKc.exit, label %9

9:                                                ; preds = %7
  tail call void @_ZN2os4freeEPv(ptr noundef nonnull %8) #19
  br label %_ZN10HeapDumper9set_errorEPKc.exit

_ZN10HeapDumper9set_errorEPKc.exit:               ; preds = %7, %9
  store ptr null, ptr %0, align 8
  ret void
}